target datalayout = "e-m:e-p270:32:32-p271:32:32-p272:64:64-i64:64-i128:128-f80:128-n8:16:32:64-S128"
target triple = "x86_64-pc-linux-gnu"

%struct.AVCodecContext = type { ptr, i32, i32, ptr, i32, i32, ptr, ptr, ptr, i64, i32, i32, ptr, i32, %struct.AVRational, %struct.AVRational, %struct.AVRational, i32, i32, i32, i32, i32, %struct.AVRational, i32, i32, i32, i32, i32, i32, i32, i32, i32, i32, i32, ptr, ptr, i32, float, float, float, float, float, float, float, float, float, i32, i32, i32, i32, i32, i32, i32, i32, i32, i32, i32, i32, ptr, ptr, ptr, i32, i32, i32, i32, i32, i32, i32, i32, i32, i32, %struct.AVChannelLayout, i32, i32, i32, i32, i32, i32, i32, i32, ptr, i32, i32, i32, float, float, i32, i32, i32, i32, i32, ptr, i64, i64, float, float, i32, i32, ptr, ptr, i32, i32, i32, i32, i32, ptr, ptr, ptr, ptr, i32, i32, [8 x i64], i32, i32, i32, i32, i32, i32, i32, ptr, ptr, i32, i32, i32, i32, i32, i32, i32, i32, i32, i32, ptr, ptr, i32, i32, ptr, ptr, ptr, ptr, i32, i32, i64, i32, i32, i64, ptr, i64, ptr, i32, ptr, i32 }
%struct.AVRational = type { i32, i32 }
%struct.AVChannelLayout = type { i32, i32, %union.anon.1, ptr }
%union.anon.1 = type { i64 }
%struct.WavPackEncodeContext = type { ptr, ptr, %struct.PutBitContext, i32, i32, i32, i32, i32, i32, [2 x ptr], [2 x i32], [18 x [2 x ptr]], [18 x [2 x i32]], [2 x [2 x ptr]], [2 x [2 x i32]], [2 x ptr], [2 x i32], ptr, ptr, i32, i32, ptr, ptr, i32, i32, i32, i32, i32, i32, i32, i32, i32, %struct.WavPackWords, i8, i8, i8, i8, i8, i8, i8, i8, i32, i32, i32, i32, i32, i32, i32, i32, i32, i32, i32, i32, i32, i32, [16 x %struct.Decorr], ptr, float }
%struct.PutBitContext = type { i32, i32, ptr, ptr, ptr }
%struct.WavPackWords = type { i32, i32, i32, i32, i32, [2 x %struct.WvChannel] }
%struct.WvChannel = type { [3 x i32], i32, i32, i32, i32 }
%struct.Decorr = type { i32, i32, i32, i32, [8 x i32], [8 x i32], i32, i32 }

; Function Attrs: cold nounwind optsize uwtable
define internal i32 @wavpack_encode_close(ptr noundef %0) #0 {
  %2 = alloca ptr, align 8
  %3 = alloca ptr, align 8
  %4 = alloca i32, align 4
  store ptr %0, ptr %2, align 8, !tbaa !4
  call void @llvm.lifetime.start.p0(i64 8, ptr %3) #11
  %5 = load ptr, ptr %2, align 8, !tbaa !4
  %6 = getelementptr inbounds nuw %struct.AVCodecContext, ptr %5, i32 0, i32 6
  %7 = load ptr, ptr %6, align 8, !tbaa !9
  store ptr %7, ptr %3, align 8, !tbaa !29
  call void @llvm.lifetime.start.p0(i64 4, ptr %4) #11
  store i32 0, ptr %4, align 4, !tbaa !39
  br label %8

8:                                                ; preds = %36, %1
  %9 = load i32, ptr %4, align 4, !tbaa !39
  %10 = icmp slt i32 %9, 18
  br i1 %10, label %11, label %39

11:                                               ; preds = %8
  %12 = load ptr, ptr %3, align 8, !tbaa !29
  %13 = getelementptr inbounds nuw %struct.WavPackEncodeContext, ptr %12, i32 0, i32 11
  %14 = load i32, ptr %4, align 4, !tbaa !39
  %15 = sext i32 %14 to i64
  %16 = getelementptr inbounds [18 x [2 x ptr]], ptr %13, i64 0, i64 %15
  %17 = getelementptr inbounds [2 x ptr], ptr %16, i64 0, i64 0
  call void @av_freep(ptr noundef %17)
  %18 = load ptr, ptr %3, align 8, !tbaa !29
  %19 = getelementptr inbounds nuw %struct.WavPackEncodeContext, ptr %18, i32 0, i32 11
  %20 = load i32, ptr %4, align 4, !tbaa !39
  %21 = sext i32 %20 to i64
  %22 = getelementptr inbounds [18 x [2 x ptr]], ptr %19, i64 0, i64 %21
  %23 = getelementptr inbounds [2 x ptr], ptr %22, i64 0, i64 1
  call void @av_freep(ptr noundef %23)
  %24 = load ptr, ptr %3, align 8, !tbaa !29
  %25 = getelementptr inbounds nuw %struct.WavPackEncodeContext, ptr %24, i32 0, i32 12
  %26 = load i32, ptr %4, align 4, !tbaa !39
  %27 = sext i32 %26 to i64
  %28 = getelementptr inbounds [18 x [2 x i32]], ptr %25, i64 0, i64 %27
  %29 = getelementptr inbounds [2 x i32], ptr %28, i64 0, i64 1
  store i32 0, ptr %29, align 4, !tbaa !39
  %30 = load ptr, ptr %3, align 8, !tbaa !29
  %31 = getelementptr inbounds nuw %struct.WavPackEncodeContext, ptr %30, i32 0, i32 12
  %32 = load i32, ptr %4, align 4, !tbaa !39
  %33 = sext i32 %32 to i64
  %34 = getelementptr inbounds [18 x [2 x i32]], ptr %31, i64 0, i64 %33
  %35 = getelementptr inbounds [2 x i32], ptr %34, i64 0, i64 0
  store i32 0, ptr %35, align 8, !tbaa !39
  br label %36

36:                                               ; preds = %11
  %37 = load i32, ptr %4, align 4, !tbaa !39
  %38 = add nsw i32 %37, 1
  store i32 %38, ptr %4, align 4, !tbaa !39
  br label %8, !llvm.loop !76

39:                                               ; preds = %8
  store i32 0, ptr %4, align 4, !tbaa !39
  br label %40

40:                                               ; preds = %88, %39
  %41 = load i32, ptr %4, align 4, !tbaa !39
  %42 = icmp slt i32 %41, 2
  br i1 %42, label %43, label %91

43:                                               ; preds = %40
  %44 = load ptr, ptr %3, align 8, !tbaa !29
  %45 = getelementptr inbounds nuw %struct.WavPackEncodeContext, ptr %44, i32 0, i32 9
  %46 = load i32, ptr %4, align 4, !tbaa !39
  %47 = sext i32 %46 to i64
  %48 = getelementptr inbounds [2 x ptr], ptr %45, i64 0, i64 %47
  call void @av_freep(ptr noundef %48)
  %49 = load ptr, ptr %3, align 8, !tbaa !29
  %50 = getelementptr inbounds nuw %struct.WavPackEncodeContext, ptr %49, i32 0, i32 10
  %51 = load i32, ptr %4, align 4, !tbaa !39
  %52 = sext i32 %51 to i64
  %53 = getelementptr inbounds [2 x i32], ptr %50, i64 0, i64 %52
  store i32 0, ptr %53, align 4, !tbaa !39
  %54 = load ptr, ptr %3, align 8, !tbaa !29
  %55 = getelementptr inbounds nuw %struct.WavPackEncodeContext, ptr %54, i32 0, i32 15
  %56 = load i32, ptr %4, align 4, !tbaa !39
  %57 = sext i32 %56 to i64
  %58 = getelementptr inbounds [2 x ptr], ptr %55, i64 0, i64 %57
  call void @av_freep(ptr noundef %58)
  %59 = load ptr, ptr %3, align 8, !tbaa !29
  %60 = getelementptr inbounds nuw %struct.WavPackEncodeContext, ptr %59, i32 0, i32 16
  %61 = load i32, ptr %4, align 4, !tbaa !39
  %62 = sext i32 %61 to i64
  %63 = getelementptr inbounds [2 x i32], ptr %60, i64 0, i64 %62
  store i32 0, ptr %63, align 4, !tbaa !39
  %64 = load ptr, ptr %3, align 8, !tbaa !29
  %65 = getelementptr inbounds nuw %struct.WavPackEncodeContext, ptr %64, i32 0, i32 13
  %66 = load i32, ptr %4, align 4, !tbaa !39
  %67 = sext i32 %66 to i64
  %68 = getelementptr inbounds [2 x [2 x ptr]], ptr %65, i64 0, i64 %67
  %69 = getelementptr inbounds [2 x ptr], ptr %68, i64 0, i64 0
  call void @av_freep(ptr noundef %69)
  %70 = load ptr, ptr %3, align 8, !tbaa !29
  %71 = getelementptr inbounds nuw %struct.WavPackEncodeContext, ptr %70, i32 0, i32 13
  %72 = load i32, ptr %4, align 4, !tbaa !39
  %73 = sext i32 %72 to i64
  %74 = getelementptr inbounds [2 x [2 x ptr]], ptr %71, i64 0, i64 %73
  %75 = getelementptr inbounds [2 x ptr], ptr %74, i64 0, i64 1
  call void @av_freep(ptr noundef %75)
  %76 = load ptr, ptr %3, align 8, !tbaa !29
  %77 = getelementptr inbounds nuw %struct.WavPackEncodeContext, ptr %76, i32 0, i32 14
  %78 = load i32, ptr %4, align 4, !tbaa !39
  %79 = sext i32 %78 to i64
  %80 = getelementptr inbounds [2 x [2 x i32]], ptr %77, i64 0, i64 %79
  %81 = getelementptr inbounds [2 x i32], ptr %80, i64 0, i64 1
  store i32 0, ptr %81, align 4, !tbaa !39
  %82 = load ptr, ptr %3, align 8, !tbaa !29
  %83 = getelementptr inbounds nuw %struct.WavPackEncodeContext, ptr %82, i32 0, i32 14
  %84 = load i32, ptr %4, align 4, !tbaa !39
  %85 = sext i32 %84 to i64
  %86 = getelementptr inbounds [2 x [2 x i32]], ptr %83, i64 0, i64 %85
  %87 = getelementptr inbounds [2 x i32], ptr %86, i64 0, i64 0
  store i32 0, ptr %87, align 8, !tbaa !39
  br label %88

88:                                               ; preds = %43
  %89 = load i32, ptr %4, align 4, !tbaa !39
  %90 = add nsw i32 %89, 1
  store i32 %90, ptr %4, align 4, !tbaa !39
  br label %40, !llvm.loop !77

91:                                               ; preds = %40
  %92 = load ptr, ptr %3, align 8, !tbaa !29
  %93 = getelementptr inbounds nuw %struct.WavPackEncodeContext, ptr %92, i32 0, i32 17
  call void @av_freep(ptr noundef %93)
  %94 = load ptr, ptr %3, align 8, !tbaa !29
  %95 = getelementptr inbounds nuw %struct.WavPackEncodeContext, ptr %94, i32 0, i32 18
  call void @av_freep(ptr noundef %95)
  %96 = load ptr, ptr %3, align 8, !tbaa !29
  %97 = getelementptr inbounds nuw %struct.WavPackEncodeContext, ptr %96, i32 0, i32 20
  store i32 0, ptr %97, align 4, !tbaa !78
  %98 = load ptr, ptr %3, align 8, !tbaa !29
  %99 = getelementptr inbounds nuw %struct.WavPackEncodeContext, ptr %98, i32 0, i32 19
  store i32 0, ptr %99, align 8, !tbaa !79
  %100 = load ptr, ptr %3, align 8, !tbaa !29
  %101 = getelementptr inbounds nuw %struct.WavPackEncodeContext, ptr %100, i32 0, i32 21
  call void @av_freep(ptr noundef %101)
  %102 = load ptr, ptr %3, align 8, !tbaa !29
  %103 = getelementptr inbounds nuw %struct.WavPackEncodeContext, ptr %102, i32 0, i32 22
  call void @av_freep(ptr noundef %103)
  %104 = load ptr, ptr %3, align 8, !tbaa !29
  %105 = getelementptr inbounds nuw %struct.WavPackEncodeContext, ptr %104, i32 0, i32 24
  store i32 0, ptr %105, align 4, !tbaa !80
  %106 = load ptr, ptr %3, align 8, !tbaa !29
  %107 = getelementptr inbounds nuw %struct.WavPackEncodeContext, ptr %106, i32 0, i32 23
  store i32 0, ptr %107, align 8, !tbaa !81
  call void @llvm.lifetime.end.p0(i64 4, ptr %4) #11
  call void @llvm.lifetime.end.p0(i64 8, ptr %3) #11
  ret i32 0
}