; Function Attrs: cold nounwind optsize uwtable
define internal noundef i32 @wavpack_encode_close(ptr noundef readonly captures(none) %0) #0 {
  %2 = getelementptr inbounds nuw i8, ptr %0, i64 32
  %3 = load ptr, ptr %2, align 8, !tbaa !4
  %4 = getelementptr inbounds nuw i8, ptr %3, i64 96
  %5 = getelementptr inbounds nuw i8, ptr %3, i64 384
  br label %12

.preheader:                                       ; preds = %12
  %6 = getelementptr inbounds nuw i8, ptr %3, i64 72
  %7 = getelementptr inbounds nuw i8, ptr %3, i64 88
  %8 = getelementptr inbounds nuw i8, ptr %3, i64 576
  %9 = getelementptr inbounds nuw i8, ptr %3, i64 592
  %10 = getelementptr inbounds nuw i8, ptr %3, i64 528
  %11 = getelementptr inbounds nuw i8, ptr %3, i64 560
  br label %17

12:                                               ; preds = %1, %12
  %indvars.iv = phi i64 [ 0, %1 ], [ %indvars.iv.next, %12 ]
  %13 = getelementptr inbounds nuw [18 x [2 x ptr]], ptr %4, i64 0, i64 %indvars.iv
  tail call void @av_freep(ptr noundef nonnull %13) #15
  %14 = getelementptr inbounds nuw i8, ptr %13, i64 8
  tail call void @av_freep(ptr noundef nonnull %14) #15
  %15 = getelementptr inbounds nuw [18 x [2 x i32]], ptr %5, i64 0, i64 %indvars.iv
  %16 = getelementptr inbounds nuw i8, ptr %15, i64 4
  store i32 0, ptr %16, align 4, !tbaa !58
  store i32 0, ptr %15, align 8, !tbaa !58
  %indvars.iv.next = add nuw nsw i64 %indvars.iv, 1
  %exitcond.not = icmp eq i64 %indvars.iv.next, 18
  br i1 %exitcond.not, label %.preheader, label %12, !llvm.loop !163

17:                                               ; preds = %.preheader, %17
  %18 = phi i1 [ true, %.preheader ], [ false, %17 ]
  %indvars.iv39 = phi i64 [ 0, %.preheader ], [ 1, %17 ]
  %19 = getelementptr inbounds nuw [2 x ptr], ptr %6, i64 0, i64 %indvars.iv39
  tail call void @av_freep(ptr noundef nonnull %19) #15
  %20 = getelementptr inbounds nuw [2 x i32], ptr %7, i64 0, i64 %indvars.iv39
  store i32 0, ptr %20, align 4, !tbaa !58
  %21 = getelementptr inbounds nuw [2 x ptr], ptr %8, i64 0, i64 %indvars.iv39
  tail call void @av_freep(ptr noundef nonnull %21) #15
  %22 = getelementptr inbounds nuw [2 x i32], ptr %9, i64 0, i64 %indvars.iv39
  store i32 0, ptr %22, align 4, !tbaa !58
  %23 = getelementptr inbounds nuw [2 x [2 x ptr]], ptr %10, i64 0, i64 %indvars.iv39
  tail call void @av_freep(ptr noundef nonnull %23) #15
  %24 = getelementptr inbounds nuw i8, ptr %23, i64 8
  tail call void @av_freep(ptr noundef nonnull %24) #15
  %25 = getelementptr inbounds nuw [2 x [2 x i32]], ptr %11, i64 0, i64 %indvars.iv39
  %26 = getelementptr inbounds nuw i8, ptr %25, i64 4
  store i32 0, ptr %26, align 4, !tbaa !58
  store i32 0, ptr %25, align 8, !tbaa !58
  br i1 %18, label %17, label %27, !llvm.loop !164

27:                                               ; preds = %17
  %28 = getelementptr inbounds nuw i8, ptr %3, i64 600
  tail call void @av_freep(ptr noundef nonnull %28) #15
  %29 = getelementptr inbounds nuw i8, ptr %3, i64 608
  tail call void @av_freep(ptr noundef nonnull %29) #15
  %30 = getelementptr inbounds nuw i8, ptr %3, i64 620
  store i32 0, ptr %30, align 4, !tbaa !165
  %31 = getelementptr inbounds nuw i8, ptr %3, i64 616
  store i32 0, ptr %31, align 8, !tbaa !166
  %32 = getelementptr inbounds nuw i8, ptr %3, i64 624
  tail call void @av_freep(ptr noundef nonnull %32) #15
  %33 = getelementptr inbounds nuw i8, ptr %3, i64 632
  tail call void @av_freep(ptr noundef nonnull %33) #15
  %34 = getelementptr inbounds nuw i8, ptr %3, i64 644
  store i32 0, ptr %34, align 4, !tbaa !167
  %35 = getelementptr inbounds nuw i8, ptr %3, i64 640
  store i32 0, ptr %35, align 8, !tbaa !168
  ret i32 0
}